target datalayout = "e-m:e-p270:32:32-p271:32:32-p272:64:64-i64:64-i128:128-f80:128-n8:16:32:64-S128"
target triple = "x86_64-pc-linux-gnu"

%"class.std::__cxx11::basic_string" = type { %"struct.std::__cxx11::basic_string<char>::_Alloc_hider", i64, %union.anon }
%"struct.std::__cxx11::basic_string<char>::_Alloc_hider" = type { ptr }
%union.anon = type { i64, [8 x i8] }

@__const._ZN4base15IsValidDiskNameERKNSt7__cxx1112basic_stringIcSt11char_traitsIcESaIcEEE.kMMCName = private unnamed_addr constant [7 x i8] c"mmcblk\00", align 1

; Function Attrs: mustprogress nounwind uwtable
define available_externally noundef ptr @_ZNKSt7__cxx1112basic_stringIcSt11char_traitsIcESaIcEE7_M_dataEv(ptr noundef nonnull align 8 dereferenceable(32) %0) #1 align 2 {
  %2 = alloca ptr, align 8
  store ptr %0, ptr %2, align 8, !tbaa !15
  %3 = load ptr, ptr %2, align 8
  %4 = getelementptr inbounds nuw %"class.std::__cxx11::basic_string", ptr %3, i32 0, i32 0
  %5 = getelementptr inbounds nuw %"struct.std::__cxx11::basic_string<char>::_Alloc_hider", ptr %4, i32 0, i32 0
  %6 = load ptr, ptr %5, align 8, !tbaa !170
  ret ptr %6
}

; Function Attrs: mustprogress nounwind uwtable
define available_externally noundef nonnull align 1 dereferenceable(1) ptr @_ZNKSt7__cxx1112basic_stringIcSt11char_traitsIcESaIcEEixEm(ptr noundef nonnull align 8 dereferenceable(32) %0, i64 noundef %1) #1 align 2 {
  %3 = alloca ptr, align 8
  %4 = alloca i64, align 8
  store ptr %0, ptr %3, align 8, !tbaa !15
  store i64 %1, ptr %4, align 8, !tbaa !17
  %5 = load ptr, ptr %3, align 8
  br label %6

6:                                                ; preds = %2
  br label %7

7:                                                ; preds = %6
  br label %8

8:                                                ; preds = %7
  %9 = call noundef ptr @_ZNKSt7__cxx1112basic_stringIcSt11char_traitsIcESaIcEE7_M_dataEv(ptr noundef nonnull align 8 dereferenceable(32) %5)
  %10 = load i64, ptr %4, align 8, !tbaa !17
  %11 = getelementptr inbounds nuw i8, ptr %9, i64 %10
  ret ptr %11
}

; Function Attrs: mustprogress nounwind uwtable
define available_externally noundef i64 @_ZNKSt7__cxx1112basic_stringIcSt11char_traitsIcESaIcEE6lengthEv(ptr noundef nonnull align 8 dereferenceable(32) %0) #1 align 2 {
  %2 = alloca ptr, align 8
  store ptr %0, ptr %2, align 8, !tbaa !15
  %3 = load ptr, ptr %2, align 8
  %4 = getelementptr inbounds nuw %"class.std::__cxx11::basic_string", ptr %3, i32 0, i32 1
  %5 = load i64, ptr %4, align 8, !tbaa !93
  ret i64 %5
}

; Function Attrs: mustprogress uwtable
define noundef zeroext i1 @_ZN4base15IsValidDiskNameERKNSt7__cxx1112basic_stringIcSt11char_traitsIcESaIcEEE(ptr noundef nonnull align 8 dereferenceable(32) %0) #0 {
  %2 = alloca i1, align 1
  %3 = alloca ptr, align 8
  %4 = alloca i64, align 8
  %5 = alloca i32, align 4
  %6 = alloca [7 x i8], align 1
  %7 = alloca i64, align 8
  %8 = alloca i64, align 8
  store ptr %0, ptr %3, align 8, !tbaa !15
  %9 = load ptr, ptr %3, align 8, !tbaa !15
  %10 = call noundef i64 @_ZNKSt7__cxx1112basic_stringIcSt11char_traitsIcESaIcEE6lengthEv(ptr noundef nonnull align 8 dereferenceable(32) %9) #18
  %11 = icmp ult i64 %10, 3
  br i1 %11, label %12, label %13

12:                                               ; preds = %1
  store i1 false, ptr %2, align 1
  br label %95

13:                                               ; preds = %1
  %14 = load ptr, ptr %3, align 8, !tbaa !15
  %15 = call noundef nonnull align 1 dereferenceable(1) ptr @_ZNKSt7__cxx1112basic_stringIcSt11char_traitsIcESaIcEEixEm(ptr noundef nonnull align 8 dereferenceable(32) %14, i64 noundef 1) #18
  %16 = load i8, ptr %15, align 1, !tbaa !109
  %17 = sext i8 %16 to i32
  %18 = icmp eq i32 %17, 100
  br i1 %18, label %19, label %60

19:                                               ; preds = %13
  %20 = load ptr, ptr %3, align 8, !tbaa !15
  %21 = call noundef nonnull align 1 dereferenceable(1) ptr @_ZNKSt7__cxx1112basic_stringIcSt11char_traitsIcESaIcEEixEm(ptr noundef nonnull align 8 dereferenceable(32) %20, i64 noundef 0) #18
  %22 = load i8, ptr %21, align 1, !tbaa !109
  %23 = sext i8 %22 to i32
  %24 = icmp eq i32 %23, 104
  br i1 %24, label %37, label %25

25:                                               ; preds = %19
  %26 = load ptr, ptr %3, align 8, !tbaa !15
  %27 = call noundef nonnull align 1 dereferenceable(1) ptr @_ZNKSt7__cxx1112basic_stringIcSt11char_traitsIcESaIcEEixEm(ptr noundef nonnull align 8 dereferenceable(32) %26, i64 noundef 0) #18
  %28 = load i8, ptr %27, align 1, !tbaa !109
  %29 = sext i8 %28 to i32
  %30 = icmp eq i32 %29, 115
  br i1 %30, label %37, label %31

31:                                               ; preds = %25
  %32 = load ptr, ptr %3, align 8, !tbaa !15
  %33 = call noundef nonnull align 1 dereferenceable(1) ptr @_ZNKSt7__cxx1112basic_stringIcSt11char_traitsIcESaIcEEixEm(ptr noundef nonnull align 8 dereferenceable(32) %32, i64 noundef 0) #18
  %34 = load i8, ptr %33, align 1, !tbaa !109
  %35 = sext i8 %34 to i32
  %36 = icmp eq i32 %35, 118
  br i1 %36, label %37, label %60

37:                                               ; preds = %31, %25, %19
  call void @llvm.lifetime.start.p0(i64 8, ptr %4) #18
  store i64 2, ptr %4, align 8, !tbaa !17
  br label %38

38:                                               ; preds = %54, %37
  %39 = load i64, ptr %4, align 8, !tbaa !17
  %40 = load ptr, ptr %3, align 8, !tbaa !15
  %41 = call noundef i64 @_ZNKSt7__cxx1112basic_stringIcSt11char_traitsIcESaIcEE6lengthEv(ptr noundef nonnull align 8 dereferenceable(32) %40) #18
  %42 = icmp ult i64 %39, %41
  br i1 %42, label %44, label %43

43:                                               ; preds = %38
  store i32 2, ptr %5, align 4
  br label %57

44:                                               ; preds = %38
  %45 = load ptr, ptr %3, align 8, !tbaa !15
  %46 = load i64, ptr %4, align 8, !tbaa !17
  %47 = call noundef nonnull align 1 dereferenceable(1) ptr @_ZNKSt7__cxx1112basic_stringIcSt11char_traitsIcESaIcEEixEm(ptr noundef nonnull align 8 dereferenceable(32) %45, i64 noundef %46) #18
  %48 = load i8, ptr %47, align 1, !tbaa !109
  %49 = sext i8 %48 to i32
  %50 = call i32 @islower(i32 noundef %49) #22
  %51 = icmp ne i32 %50, 0
  br i1 %51, label %53, label %52

52:                                               ; preds = %44
  store i1 false, ptr %2, align 1
  store i32 1, ptr %5, align 4
  br label %57

53:                                               ; preds = %44
  br label %54

54:                                               ; preds = %53
  %55 = load i64, ptr %4, align 8, !tbaa !17
  %56 = add i64 %55, 1
  store i64 %56, ptr %4, align 8, !tbaa !17
  br label %38, !llvm.loop !156

57:                                               ; preds = %52, %43
  call void @llvm.lifetime.end.p0(i64 8, ptr %4) #18
  %58 = load i32, ptr %5, align 4
  switch i32 %58, label %97 [
    i32 2, label %59
    i32 1, label %95
  ]

59:                                               ; preds = %57
  store i1 true, ptr %2, align 1
  br label %95

60:                                               ; preds = %31, %13
  call void @llvm.lifetime.start.p0(i64 7, ptr %6) #18
  call void @llvm.memcpy.p0.p0.i64(ptr align 1 %6, ptr align 1 @__const._ZN4base15IsValidDiskNameERKNSt7__cxx1112basic_stringIcSt11char_traitsIcESaIcEEE.kMMCName, i64 7, i1 false)
  call void @llvm.lifetime.start.p0(i64 8, ptr %7) #18
  store i64 6, ptr %7, align 8, !tbaa !17
  %61 = load ptr, ptr %3, align 8, !tbaa !15
  %62 = call noundef i64 @_ZNKSt7__cxx1112basic_stringIcSt11char_traitsIcESaIcEE6lengthEv(ptr noundef nonnull align 8 dereferenceable(32) %61) #18
  %63 = icmp ult i64 %62, 7
  br i1 %63, label %64, label %65

64:                                               ; preds = %60
  store i1 false, ptr %2, align 1
  store i32 1, ptr %5, align 4
  br label %94

65:                                               ; preds = %60
  %66 = load ptr, ptr %3, align 8, !tbaa !15
  %67 = getelementptr inbounds [7 x i8], ptr %6, i64 0, i64 0
  %68 = call noundef i32 @_ZNKSt7__cxx1112basic_stringIcSt11char_traitsIcESaIcEE7compareEmmPKc(ptr noundef nonnull align 8 dereferenceable(32) %66, i64 noundef 0, i64 noundef 6, ptr noundef %67)
  %69 = icmp ne i32 %68, 0
  br i1 %69, label %70, label %71

70:                                               ; preds = %65
  store i1 false, ptr %2, align 1
  store i32 1, ptr %5, align 4
  br label %94

71:                                               ; preds = %65
  call void @llvm.lifetime.start.p0(i64 8, ptr %8) #18
  store i64 6, ptr %8, align 8, !tbaa !17
  br label %72

72:                                               ; preds = %88, %71
  %73 = load i64, ptr %8, align 8, !tbaa !17
  %74 = load ptr, ptr %3, align 8, !tbaa !15
  %75 = call noundef i64 @_ZNKSt7__cxx1112basic_stringIcSt11char_traitsIcESaIcEE6lengthEv(ptr noundef nonnull align 8 dereferenceable(32) %74) #18
  %76 = icmp ult i64 %73, %75
  br i1 %76, label %78, label %77

77:                                               ; preds = %72
  store i32 5, ptr %5, align 4
  br label %91

78:                                               ; preds = %72
  %79 = load ptr, ptr %3, align 8, !tbaa !15
  %80 = load i64, ptr %8, align 8, !tbaa !17
  %81 = call noundef nonnull align 1 dereferenceable(1) ptr @_ZNKSt7__cxx1112basic_stringIcSt11char_traitsIcESaIcEEixEm(ptr noundef nonnull align 8 dereferenceable(32) %79, i64 noundef %80) #18
  %82 = load i8, ptr %81, align 1, !tbaa !109
  %83 = sext i8 %82 to i32
  %84 = call i32 @isdigit(i32 noundef %83) #22
  %85 = icmp ne i32 %84, 0
  br i1 %85, label %87, label %86

86:                                               ; preds = %78
  store i1 false, ptr %2, align 1
  store i32 1, ptr %5, align 4
  br label %91

87:                                               ; preds = %78
  br label %88

88:                                               ; preds = %87
  %89 = load i64, ptr %8, align 8, !tbaa !17
  %90 = add i64 %89, 1
  store i64 %90, ptr %8, align 8, !tbaa !17
  br label %72, !llvm.loop !157

91:                                               ; preds = %86, %77
  call void @llvm.lifetime.end.p0(i64 8, ptr %8) #18
  %92 = load i32, ptr %5, align 4
  switch i32 %92, label %94 [
    i32 5, label %93
  ]

93:                                               ; preds = %91
  store i1 true, ptr %2, align 1
  store i32 1, ptr %5, align 4
  br label %94

94:                                               ; preds = %93, %91, %70, %64
  call void @llvm.lifetime.end.p0(i64 8, ptr %7) #18
  call void @llvm.lifetime.end.p0(i64 7, ptr %6) #18
  br label %95

95:                                               ; preds = %94, %59, %57, %12
  %96 = load i1, ptr %2, align 1
  ret i1 %96

97:                                               ; preds = %57
  unreachable
}