; Function Attrs: mustprogress uwtable
define noundef zeroext i1 @_ZN4base15IsValidDiskNameERKNSt7__cxx1112basic_stringIcSt11char_traitsIcESaIcEEE(ptr noundef nonnull align 8 dereferenceable(32) %0) local_unnamed_addr #0 {
  %2 = alloca [7 x i8], align 1
  %3 = getelementptr inbounds nuw i8, ptr %0, i64 8
  %4 = load i64, ptr %3, align 8, !tbaa !20
  %5 = icmp ult i64 %4, 3
  br i1 %5, label %.loopexit26, label %6

6:                                                ; preds = %1
  %7 = load ptr, ptr %0, align 8, !tbaa !23
  %8 = getelementptr inbounds nuw i8, ptr %7, i64 1
  %9 = load i8, ptr %8, align 1, !tbaa !22
  %10 = icmp eq i8 %9, 100
  br i1 %10, label %11, label %18

11:                                               ; preds = %6
  %12 = load i8, ptr %7, align 1, !tbaa !22
  switch i8 %12, label %18 [
    i8 104, label %.lr.ph.preheader
    i8 115, label %.lr.ph.preheader
    i8 118, label %.lr.ph.preheader
  ]

.lr.ph.preheader:                                 ; preds = %11, %11, %11
  br label %.lr.ph

.lr.ph:                                           ; preds = %.lr.ph.preheader, %.lr.ph
  %.02227 = phi i64 [ %17, %.lr.ph ], [ 2, %.lr.ph.preheader ]
  %13 = getelementptr inbounds nuw i8, ptr %7, i64 %.02227
  %14 = load i8, ptr %13, align 1, !tbaa !22
  %15 = sext i8 %14 to i32
  %16 = tail call i32 @islower(i32 noundef %15) #28
  %.not24.not = icmp ne i32 %16, 0
  %17 = add nuw i64 %.02227, 1
  %exitcond.not = icmp ne i64 %17, %4
  %or.cond.not = select i1 %.not24.not, i1 %exitcond.not, i1 false
  br i1 %or.cond.not, label %.lr.ph, label %.loopexit26, !llvm.loop !96

18:                                               ; preds = %11, %6
  call void @llvm.lifetime.start.p0(i64 7, ptr nonnull %2) #25
  call void @llvm.memcpy.p0.p0.i64(ptr noundef nonnull align 1 dereferenceable(7) %2, ptr noundef nonnull align 1 dereferenceable(7) @__const._ZN4base15IsValidDiskNameERKNSt7__cxx1112basic_stringIcSt11char_traitsIcESaIcEEE.kMMCName, i64 7, i1 false)
  %19 = icmp ult i64 %4, 7
  br i1 %19, label %.loopexit, label %20

20:                                               ; preds = %18
  %21 = call noundef i32 @_ZNKSt7__cxx1112basic_stringIcSt11char_traitsIcESaIcEE7compareEmmPKc(ptr noundef nonnull align 8 dereferenceable(32) %0, i64 noundef 0, i64 noundef 6, ptr noundef nonnull %2)
  %.not = icmp eq i32 %21, 0
  br i1 %.not, label %.preheader, label %.loopexit

.preheader:                                       ; preds = %20
  %22 = load i64, ptr %3, align 8, !tbaa !20
  %.not2330 = icmp ult i64 %22, 7
  br i1 %.not2330, label %.loopexit, label %.lr.ph32

.lr.ph32:                                         ; preds = %.preheader
  %23 = load ptr, ptr %0, align 8, !tbaa !23
  br label %24

24:                                               ; preds = %24, %.lr.ph32
  %.031 = phi i64 [ 6, %.lr.ph32 ], [ %28, %24 ]
  %25 = getelementptr inbounds nuw i8, ptr %23, i64 %.031
  %26 = load i8, ptr %25, align 1, !tbaa !22
  %27 = sext i8 %26 to i32
  %isdigittmp = add nsw i32 %27, -48
  %isdigit = icmp ult i32 %isdigittmp, 10
  %28 = add nuw i64 %.031, 1
  %exitcond37.not = icmp ne i64 %28, %22
  %or.cond38.not = select i1 %isdigit, i1 %exitcond37.not, i1 false
  br i1 %or.cond38.not, label %24, label %.loopexit, !llvm.loop !97

.loopexit:                                        ; preds = %24, %.preheader, %20, %18
  %.2 = phi i1 [ false, %18 ], [ false, %20 ], [ true, %.preheader ], [ %isdigit, %24 ]
  call void @llvm.lifetime.end.p0(i64 7, ptr nonnull %2) #25
  br label %.loopexit26

.loopexit26:                                      ; preds = %.lr.ph, %1, %.loopexit
  %.019 = phi i1 [ %.2, %.loopexit ], [ false, %1 ], [ %.not24.not, %.lr.ph ]
  ret i1 %.019
}